target datalayout = "e-m:e-p270:32:32-p271:32:32-p272:64:64-i64:64-i128:128-f80:128-n8:16:32:64-S128"
target triple = "x86_64-pc-linux-gnu"

@_ZN14Deoptimization17_trap_action_nameE = hidden global [5 x ptr] [ptr @.str.51, ptr @.str.82, ptr @.str.83, ptr @.str.84, ptr @.str.85], align 16
@.str.86 = private unnamed_addr constant [5 x i8] c"many\00", align 1
@_ZZN14Deoptimization16trap_reason_nameEiE3buf = internal global [20 x i8] zeroinitializer, align 16
@.str.87 = private unnamed_addr constant [9 x i8] c"reason%d\00", align 1
@_ZZN14Deoptimization16trap_action_nameEiE3buf = internal global [20 x i8] zeroinitializer, align 16
@.str.88 = private unnamed_addr constant [9 x i8] c"action%d\00", align 1
@_ZN14Deoptimization20_deoptimization_histE = hidden global [31 x [6 x [1 x i32]]] zeroinitializer, align 16

; Function Attrs: mustprogress nounwind uwtable
define hidden noundef ptr @_ZN14Deoptimization16trap_action_nameEi(i32 noundef %0) #1 align 2 {
  %2 = alloca ptr, align 8
  %3 = alloca i32, align 4
  store i32 %0, ptr %3, align 4
  %4 = load i32, ptr %3, align 4
  %5 = icmp ult i32 %4, 5
  br i1 %5, label %6, label %11

6:                                                ; preds = %1
  %7 = load i32, ptr %3, align 4
  %8 = sext i32 %7 to i64
  %9 = getelementptr inbounds [5 x ptr], ptr @_ZN14Deoptimization17_trap_action_nameE, i64 0, i64 %8
  %10 = load ptr, ptr %9, align 8
  store ptr %10, ptr %2, align 8
  br label %14

11:                                               ; preds = %1
  %12 = load i32, ptr %3, align 4
  %13 = call noundef i32 (ptr, i64, ptr, ...) @_ZN2os16snprintf_checkedEPcmPKcz(ptr noundef @_ZZN14Deoptimization16trap_action_nameEiE3buf, i64 noundef 20, ptr noundef @.str.88, i32 noundef %12)
  store ptr @_ZZN14Deoptimization16trap_action_nameEiE3buf, ptr %2, align 8
  br label %14

14:                                               ; preds = %11, %6
  %15 = load ptr, ptr %2, align 8
  ret ptr %15
}

; Function Attrs: mustprogress nounwind uwtable
define hidden noundef ptr @_ZN14Deoptimization16trap_reason_nameEi(i32 noundef %0) #1 align 2 {
  %2 = alloca ptr, align 8
  %3 = alloca i32, align 4
  store i32 %0, ptr %3, align 4
  %4 = load i32, ptr %3, align 4
  %5 = icmp eq i32 %4, -1
  br i1 %5, label %6, label %7

6:                                                ; preds = %1
  store ptr @.str.86, ptr %2, align 8
  br label %18

7:                                                ; preds = %1
  %8 = load i32, ptr %3, align 4
  %9 = icmp ult i32 %8, 31
  br i1 %9, label %10, label %15

10:                                               ; preds = %7
  %11 = load i32, ptr %3, align 4
  %12 = sext i32 %11 to i64
  %13 = getelementptr inbounds [31 x ptr], ptr @_ZN14Deoptimization17_trap_reason_nameE, i64 0, i64 %12
  %14 = load ptr, ptr %13, align 8
  store ptr %14, ptr %2, align 8
  br label %18

15:                                               ; preds = %7
  %16 = load i32, ptr %3, align 4
  %17 = call noundef i32 (ptr, i64, ptr, ...) @_ZN2os16snprintf_checkedEPcmPKcz(ptr noundef @_ZZN14Deoptimization16trap_reason_nameEiE3buf, i64 noundef 20, ptr noundef @.str.87, i32 noundef %16)
  store ptr @_ZZN14Deoptimization16trap_reason_nameEiE3buf, ptr %2, align 8
  br label %18

18:                                               ; preds = %15, %10, %6
  %19 = load ptr, ptr %2, align 8
  ret ptr %19
}

; Function Attrs: mustprogress nounwind uwtable
define hidden noundef i32 @_ZN14Deoptimization26total_deoptimization_countEv() #1 align 2 {
  %1 = load i32, ptr @_ZN14Deoptimization20_deoptimization_histE, align 16
  ret i32 %1
}

; Function Attrs: mustprogress nounwind uwtable
define hidden noundef i32 @_ZN14Deoptimization20deoptimization_countEPKcS1_(ptr noundef %0, ptr noundef %1) #1 align 2 {
  %3 = alloca i32, align 4
  %4 = alloca ptr, align 8
  %5 = alloca ptr, align 8
  %6 = alloca i32, align 4
  %7 = alloca i32, align 4
  %8 = alloca i32, align 4
  %9 = alloca ptr, align 8
  %10 = alloca i32, align 4
  store ptr %0, ptr %4, align 8
  store ptr %1, ptr %5, align 8
  %11 = load ptr, ptr %4, align 8
  %12 = icmp eq ptr %11, null
  br i1 %12, label %13, label %18

13:                                               ; preds = %2
  %14 = load ptr, ptr %5, align 8
  %15 = icmp eq ptr %14, null
  br i1 %15, label %16, label %18

16:                                               ; preds = %13
  %17 = call noundef i32 @_ZN14Deoptimization26total_deoptimization_countEv()
  store i32 %17, ptr %3, align 4
  br label %80

18:                                               ; preds = %13, %2
  store i32 0, ptr %6, align 4
  store i32 0, ptr %7, align 4
  br label %19

19:                                               ; preds = %75, %18
  %20 = load i32, ptr %7, align 4
  %21 = icmp slt i32 %20, 31
  br i1 %21, label %22, label %78

22:                                               ; preds = %19
  %23 = load ptr, ptr %4, align 8
  %24 = icmp eq ptr %23, null
  br i1 %24, label %31, label %25

25:                                               ; preds = %22
  %26 = load ptr, ptr %4, align 8
  %27 = load i32, ptr %7, align 4
  %28 = call noundef ptr @_ZN14Deoptimization16trap_reason_nameEi(i32 noundef %27)
  %29 = call i32 @strcmp(ptr noundef %26, ptr noundef %28) #12
  %30 = icmp ne i32 %29, 0
  br i1 %30, label %74, label %31

31:                                               ; preds = %25, %22
  store i32 0, ptr %8, align 4
  br label %32

32:                                               ; preds = %70, %31
  %33 = load i32, ptr %8, align 4
  %34 = icmp slt i32 %33, 5
  br i1 %34, label %35, label %73

35:                                               ; preds = %32
  %36 = load ptr, ptr %5, align 8
  %37 = icmp eq ptr %36, null
  br i1 %37, label %44, label %38

38:                                               ; preds = %35
  %39 = load ptr, ptr %5, align 8
  %40 = load i32, ptr %8, align 4
  %41 = call noundef ptr @_ZN14Deoptimization16trap_action_nameEi(i32 noundef %40)
  %42 = call i32 @strcmp(ptr noundef %39, ptr noundef %41) #12
  %43 = icmp ne i32 %42, 0
  br i1 %43, label %69, label %44

44:                                               ; preds = %38, %35
  %45 = load i32, ptr %7, align 4
  %46 = sext i32 %45 to i64
  %47 = getelementptr inbounds [31 x [6 x [1 x i32]]], ptr @_ZN14Deoptimization20_deoptimization_histE, i64 0, i64 %46
  %48 = load i32, ptr %8, align 4
  %49 = add nsw i32 1, %48
  %50 = sext i32 %49 to i64
  %51 = getelementptr inbounds [6 x [1 x i32]], ptr %47, i64 0, i64 %50
  %52 = getelementptr inbounds [1 x i32], ptr %51, i64 0, i64 0
  store ptr %52, ptr %9, align 8
  store i32 0, ptr %10, align 4
  br label %53

53:                                               ; preds = %65, %44
  %54 = load i32, ptr %10, align 4
  %55 = icmp slt i32 %54, 1
  br i1 %55, label %56, label %68

56:                                               ; preds = %53
  %57 = load ptr, ptr %9, align 8
  %58 = load i32, ptr %10, align 4
  %59 = sext i32 %58 to i64
  %60 = getelementptr inbounds i32, ptr %57, i64 %59
  %61 = load i32, ptr %60, align 4
  %62 = lshr i32 %61, 8
  %63 = load i32, ptr %6, align 4
  %64 = add i32 %63, %62
  store i32 %64, ptr %6, align 4
  br label %65

65:                                               ; preds = %56
  %66 = load i32, ptr %10, align 4
  %67 = add nsw i32 %66, 1
  store i32 %67, ptr %10, align 4
  br label %53, !llvm.loop !29

68:                                               ; preds = %53
  br label %69

69:                                               ; preds = %68, %38
  br label %70

70:                                               ; preds = %69
  %71 = load i32, ptr %8, align 4
  %72 = add nsw i32 %71, 1
  store i32 %72, ptr %8, align 4
  br label %32, !llvm.loop !30

73:                                               ; preds = %32
  br label %74

74:                                               ; preds = %73, %25
  br label %75

75:                                               ; preds = %74
  %76 = load i32, ptr %7, align 4
  %77 = add nsw i32 %76, 1
  store i32 %77, ptr %7, align 4
  br label %19, !llvm.loop !31

78:                                               ; preds = %19
  %79 = load i32, ptr %6, align 4
  store i32 %79, ptr %3, align 4
  br label %80

80:                                               ; preds = %78, %16
  %81 = load i32, ptr %3, align 4
  ret i32 %81
}