; Function Attrs: mustprogress nofree nounwind willreturn memory(read, inaccessiblemem: none) uwtable
define hidden noundef i32 @_ZN14Deoptimization20deoptimization_countEPKcS1_(ptr noundef readonly %0, ptr noundef readonly %1) local_unnamed_addr #9 align 2 {
  %3 = icmp eq ptr %0, null
  %4 = icmp eq ptr %1, null
  %or.cond = and i1 %3, %4
  br i1 %or.cond, label %24, label %.preheader

.preheader:                                       ; preds = %2
  br i1 %4, label %.preheader.split.us, label %.preheader.split

.preheader.split.us:                              ; preds = %.preheader
  br i1 %3, label %.split.us.us.us, label %_ZN14Deoptimization16trap_reason_nameEi.exit.us

.split.us.us.us:                                  ; preds = %.preheader.split.us, %.loopexit29.split.us.us.us
  %indvars.iv71 = phi i64 [ %indvars.iv.next72, %.loopexit29.split.us.us.us ], [ 0, %.preheader.split.us ]
  %.02434.us.us = phi i32 [ %8, %.loopexit29.split.us.us.us ], [ 0, %.preheader.split.us ]
  br label %.loopexit.us.us.us

.loopexit.us.us.us:                               ; preds = %.loopexit.us.us.us, %.split.us.us.us
  %indvars.iv67 = phi i64 [ %indvars.iv.next68, %.loopexit.us.us.us ], [ 0, %.split.us.us.us ]
  %.132.us.us.us = phi i32 [ %8, %.loopexit.us.us.us ], [ %.02434.us.us, %.split.us.us.us ]
  %indvars.iv.next68 = add nuw nsw i64 %indvars.iv67, 1
  %5 = getelementptr inbounds [31 x [6 x [1 x i32]]], ptr @_ZN14Deoptimization20_deoptimization_histE, i64 0, i64 %indvars.iv71, i64 %indvars.iv.next68
  %6 = load i32, ptr %5, align 4
  %7 = lshr i32 %6, 8
  %8 = add i32 %7, %.132.us.us.us
  %exitcond70.not = icmp eq i64 %indvars.iv.next68, 5
  br i1 %exitcond70.not, label %.loopexit29.split.us.us.us, label %.loopexit.us.us.us, !llvm.loop !81

.loopexit29.split.us.us.us:                       ; preds = %.loopexit.us.us.us
  %indvars.iv.next72 = add nuw nsw i64 %indvars.iv71, 1
  %exitcond74.not = icmp eq i64 %indvars.iv.next72, 31
  br i1 %exitcond74.not, label %.loopexit30, label %.split.us.us.us, !llvm.loop !82

_ZN14Deoptimization16trap_reason_nameEi.exit.us:  ; preds = %.preheader.split.us, %.loopexit29.split.us.us
  %indvars.iv63 = phi i64 [ %indvars.iv.next64, %.loopexit29.split.us.us ], [ 0, %.preheader.split.us ]
  %.02434.us = phi i32 [ %.4.us, %.loopexit29.split.us.us ], [ 0, %.preheader.split.us ]
  %9 = getelementptr inbounds [31 x ptr], ptr @_ZN14Deoptimization17_trap_reason_nameE, i64 0, i64 %indvars.iv63
  %10 = load ptr, ptr %9, align 8
  %11 = tail call i32 @strcmp(ptr noundef nonnull dereferenceable(1) %0, ptr noundef nonnull dereferenceable(1) %10) #23
  %.not.us = icmp eq i32 %11, 0
  br i1 %.not.us, label %.loopexit.us.us, label %.loopexit29.split.us.us

.loopexit29.split.us.us:                          ; preds = %.loopexit.us.us, %_ZN14Deoptimization16trap_reason_nameEi.exit.us
  %.4.us = phi i32 [ %.02434.us, %_ZN14Deoptimization16trap_reason_nameEi.exit.us ], [ %15, %.loopexit.us.us ]
  %indvars.iv.next64 = add nuw nsw i64 %indvars.iv63, 1
  %exitcond66.not = icmp eq i64 %indvars.iv.next64, 31
  br i1 %exitcond66.not, label %.loopexit30, label %_ZN14Deoptimization16trap_reason_nameEi.exit.us, !llvm.loop !82

.loopexit.us.us:                                  ; preds = %_ZN14Deoptimization16trap_reason_nameEi.exit.us, %.loopexit.us.us
  %indvars.iv59 = phi i64 [ %indvars.iv.next60, %.loopexit.us.us ], [ 0, %_ZN14Deoptimization16trap_reason_nameEi.exit.us ]
  %.132.us.us = phi i32 [ %15, %.loopexit.us.us ], [ %.02434.us, %_ZN14Deoptimization16trap_reason_nameEi.exit.us ]
  %indvars.iv.next60 = add nuw nsw i64 %indvars.iv59, 1
  %12 = getelementptr inbounds [31 x [6 x [1 x i32]]], ptr @_ZN14Deoptimization20_deoptimization_histE, i64 0, i64 %indvars.iv63, i64 %indvars.iv.next60
  %13 = load i32, ptr %12, align 4
  %14 = lshr i32 %13, 8
  %15 = add i32 %14, %.132.us.us
  %exitcond62.not = icmp eq i64 %indvars.iv.next60, 5
  br i1 %exitcond62.not, label %.loopexit29.split.us.us, label %.loopexit.us.us, !llvm.loop !81

.preheader.split:                                 ; preds = %.preheader
  br i1 %3, label %.split.us, label %_ZN14Deoptimization16trap_reason_nameEi.exit

.split.us:                                        ; preds = %.preheader.split, %.loopexit29.split.us
  %indvars.iv55 = phi i64 [ %indvars.iv.next56, %.loopexit29.split.us ], [ 0, %.preheader.split ]
  %.02434.us38 = phi i32 [ %.3.us, %.loopexit29.split.us ], [ 0, %.preheader.split ]
  br label %_ZN14Deoptimization16trap_action_nameEi.exit.us

_ZN14Deoptimization16trap_action_nameEi.exit.us:  ; preds = %_ZN14Deoptimization16trap_action_nameEi.exit.us._crit_edge, %.split.us
  %indvars.iv51 = phi i64 [ %19, %_ZN14Deoptimization16trap_action_nameEi.exit.us._crit_edge ], [ 0, %.split.us ]
  %.132.us = phi i32 [ %.3.us, %_ZN14Deoptimization16trap_action_nameEi.exit.us._crit_edge ], [ %.02434.us38, %.split.us ]
  %16 = getelementptr inbounds [5 x ptr], ptr @_ZN14Deoptimization17_trap_action_nameE, i64 0, i64 %indvars.iv51
  %17 = load ptr, ptr %16, align 8
  %18 = tail call i32 @strcmp(ptr noundef nonnull dereferenceable(1) %1, ptr noundef nonnull dereferenceable(1) %17) #23
  %.not27.us = icmp eq i32 %18, 0
  %19 = add nuw nsw i64 %indvars.iv51, 1
  br i1 %.not27.us, label %.loopexit.us, label %_ZN14Deoptimization16trap_action_nameEi.exit.us._crit_edge

.loopexit.us:                                     ; preds = %_ZN14Deoptimization16trap_action_nameEi.exit.us
  %20 = getelementptr inbounds [31 x [6 x [1 x i32]]], ptr @_ZN14Deoptimization20_deoptimization_histE, i64 0, i64 %indvars.iv55, i64 %19
  %21 = load i32, ptr %20, align 4
  %22 = lshr i32 %21, 8
  %23 = add i32 %22, %.132.us
  br label %_ZN14Deoptimization16trap_action_nameEi.exit.us._crit_edge

_ZN14Deoptimization16trap_action_nameEi.exit.us._crit_edge: ; preds = %_ZN14Deoptimization16trap_action_nameEi.exit.us, %.loopexit.us
  %.3.us = phi i32 [ %23, %.loopexit.us ], [ %.132.us, %_ZN14Deoptimization16trap_action_nameEi.exit.us ]
  %exitcond54.not = icmp eq i64 %19, 5
  br i1 %exitcond54.not, label %.loopexit29.split.us, label %_ZN14Deoptimization16trap_action_nameEi.exit.us, !llvm.loop !81

.loopexit29.split.us:                             ; preds = %_ZN14Deoptimization16trap_action_nameEi.exit.us._crit_edge
  %indvars.iv.next56 = add nuw nsw i64 %indvars.iv55, 1
  %exitcond58.not = icmp eq i64 %indvars.iv.next56, 31
  br i1 %exitcond58.not, label %.loopexit30, label %.split.us, !llvm.loop !82

24:                                               ; preds = %2
  %25 = load i32, ptr @_ZN14Deoptimization20_deoptimization_histE, align 16
  br label %.loopexit30

_ZN14Deoptimization16trap_reason_nameEi.exit:     ; preds = %.preheader.split, %.loopexit29.split
  %indvars.iv47 = phi i64 [ %indvars.iv.next48, %.loopexit29.split ], [ 0, %.preheader.split ]
  %.02434 = phi i32 [ %.4, %.loopexit29.split ], [ 0, %.preheader.split ]
  %26 = getelementptr inbounds [31 x ptr], ptr @_ZN14Deoptimization17_trap_reason_nameE, i64 0, i64 %indvars.iv47
  %27 = load ptr, ptr %26, align 8
  %28 = tail call i32 @strcmp(ptr noundef nonnull dereferenceable(1) %0, ptr noundef nonnull dereferenceable(1) %27) #23
  %.not = icmp eq i32 %28, 0
  br i1 %.not, label %_ZN14Deoptimization16trap_action_nameEi.exit, label %.loopexit29.split

_ZN14Deoptimization16trap_action_nameEi.exit:     ; preds = %_ZN14Deoptimization16trap_reason_nameEi.exit, %_ZN14Deoptimization16trap_action_nameEi.exit._crit_edge
  %indvars.iv = phi i64 [ %32, %_ZN14Deoptimization16trap_action_nameEi.exit._crit_edge ], [ 0, %_ZN14Deoptimization16trap_reason_nameEi.exit ]
  %.132 = phi i32 [ %.3, %_ZN14Deoptimization16trap_action_nameEi.exit._crit_edge ], [ %.02434, %_ZN14Deoptimization16trap_reason_nameEi.exit ]
  %29 = getelementptr inbounds [5 x ptr], ptr @_ZN14Deoptimization17_trap_action_nameE, i64 0, i64 %indvars.iv
  %30 = load ptr, ptr %29, align 8
  %31 = tail call i32 @strcmp(ptr noundef nonnull dereferenceable(1) %1, ptr noundef nonnull dereferenceable(1) %30) #23
  %.not27 = icmp eq i32 %31, 0
  %32 = add nuw nsw i64 %indvars.iv, 1
  br i1 %.not27, label %.loopexit, label %_ZN14Deoptimization16trap_action_nameEi.exit._crit_edge

.loopexit:                                        ; preds = %_ZN14Deoptimization16trap_action_nameEi.exit
  %33 = getelementptr inbounds [31 x [6 x [1 x i32]]], ptr @_ZN14Deoptimization20_deoptimization_histE, i64 0, i64 %indvars.iv47, i64 %32
  %34 = load i32, ptr %33, align 4
  %35 = lshr i32 %34, 8
  %36 = add i32 %35, %.132
  br label %_ZN14Deoptimization16trap_action_nameEi.exit._crit_edge

_ZN14Deoptimization16trap_action_nameEi.exit._crit_edge: ; preds = %_ZN14Deoptimization16trap_action_nameEi.exit, %.loopexit
  %.3 = phi i32 [ %36, %.loopexit ], [ %.132, %_ZN14Deoptimization16trap_action_nameEi.exit ]
  %exitcond.not = icmp eq i64 %32, 5
  br i1 %exitcond.not, label %.loopexit29.split, label %_ZN14Deoptimization16trap_action_nameEi.exit, !llvm.loop !81

.loopexit29.split:                                ; preds = %_ZN14Deoptimization16trap_action_nameEi.exit._crit_edge, %_ZN14Deoptimization16trap_reason_nameEi.exit
  %.4 = phi i32 [ %.02434, %_ZN14Deoptimization16trap_reason_nameEi.exit ], [ %.3, %_ZN14Deoptimization16trap_action_nameEi.exit._crit_edge ]
  %indvars.iv.next48 = add nuw nsw i64 %indvars.iv47, 1
  %exitcond50.not = icmp eq i64 %indvars.iv.next48, 31
  br i1 %exitcond50.not, label %.loopexit30, label %_ZN14Deoptimization16trap_reason_nameEi.exit, !llvm.loop !82

.loopexit30:                                      ; preds = %.loopexit29.split, %.loopexit29.split.us, %.loopexit29.split.us.us, %.loopexit29.split.us.us.us, %24
  %.021 = phi i32 [ %25, %24 ], [ %8, %.loopexit29.split.us.us.us ], [ %.4.us, %.loopexit29.split.us.us ], [ %.3.us, %.loopexit29.split.us ], [ %.4, %.loopexit29.split ]
  ret i32 %.021
}